CCS PCM C Compiler, Version 5.025, 51760               04-mar.-21 16:13

               Filename:   C:\Users\diego.gomez\Documents\Diego\Micros_avanzados\Microcontroladores_avanzados\Programa Diego\2do programa\cc_compiler\Pulsador.lst

               ROM used:   590 words (7%)
                           Largest free fragment is 2048
               RAM used:   16 (4%) at main() level
                           28 (8%) worst case
               Stack used: 1 locations
               Stack size: 8

*
0000:  MOVLW  01
0001:  MOVWF  0A
0002:  GOTO   1DA
0003:  NOP
.................... #include <16F877A.h> 
.................... //////////// Standard Header file for the PIC16F877A device //////////////// 
.................... /////////////////////////////////////////////////////////////////////////// 
.................... ////        (C) Copyright 1996, 2013 Custom Computer Services          //// 
.................... //// This source code may only be used by licensed users of the CCS C  //// 
.................... //// compiler.  This source code may only be distributed to other      //// 
.................... //// licensed users of the CCS C compiler.  No other use, reproduction //// 
.................... //// or distribution is permitted without written permission.          //// 
.................... //// Derivative programs created using this software in object code    //// 
.................... //// form are not restricted in any way.                               //// 
.................... /////////////////////////////////////////////////////////////////////////// 
.................... #device PIC16F877A 
0004:  DATA D3,32
0005:  DATA E3,3A
0006:  DATA 65,37
0007:  DATA E3,34
0008:  DATA 61,10
0009:  DATA 31,10
000A:  DATA 00,00
000B:  DATA D3,32
000C:  DATA E3,3A
000D:  DATA 65,37
000E:  DATA E3,34
000F:  DATA 61,10
0010:  DATA 32,10
0011:  DATA 00,01
0012:  DATA D3,32
0013:  DATA E3,3A
0014:  DATA 65,37
0015:  DATA E3,34
0016:  DATA 61,10
0017:  DATA 33,10
0018:  DATA 00,01
0019:  DATA D3,32
001A:  DATA E3,3A
001B:  DATA 65,37
001C:  DATA E3,34
001D:  DATA 61,10
001E:  DATA 34,10
001F:  DATA 00,00
0020:  MOVF   31,W
0021:  CLRF   78
0022:  SUBWF  30,W
0023:  BTFSC  03.0
0024:  GOTO   028
0025:  MOVF   30,W
0026:  MOVWF  77
0027:  GOTO   034
0028:  CLRF   77
0029:  MOVLW  08
002A:  MOVWF  32
002B:  RLF    30,F
002C:  RLF    77,F
002D:  MOVF   31,W
002E:  SUBWF  77,W
002F:  BTFSC  03.0
0030:  MOVWF  77
0031:  RLF    78,F
0032:  DECFSZ 32,F
0033:  GOTO   02B
0034:  RETURN
0035:  MOVLW  20
0036:  BTFSS  2B.4
0037:  MOVLW  30
0038:  MOVWF  2C
0039:  MOVF   2A,W
003A:  MOVWF  77
003B:  BTFSS  2A.7
003C:  GOTO   045
003D:  COMF   77,F
003E:  INCF   77,F
003F:  MOVF   77,W
0040:  MOVWF  2A
0041:  MOVLW  2D
0042:  MOVWF  2C
0043:  BSF    2B.7
0044:  BSF    2B.0
0045:  MOVF   2A,W
0046:  MOVWF  30
0047:  MOVLW  64
0048:  MOVWF  31
0049:  CALL   020
004A:  MOVF   77,W
004B:  MOVWF  2A
004C:  MOVLW  30
004D:  ADDWF  78,W
004E:  MOVWF  2D
004F:  MOVF   2A,W
0050:  MOVWF  30
0051:  MOVLW  0A
0052:  MOVWF  31
0053:  CALL   020
0054:  MOVLW  30
0055:  ADDWF  77,W
0056:  MOVWF  2F
0057:  MOVLW  30
0058:  ADDWF  78,W
0059:  MOVWF  2E
005A:  MOVF   2C,W
005B:  MOVWF  77
005C:  MOVLW  30
005D:  SUBWF  2D,W
005E:  BTFSC  03.2
005F:  GOTO   064
0060:  BSF    2B.1
0061:  BTFSC  2B.7
0062:  BSF    2B.2
0063:  GOTO   078
0064:  MOVF   2C,W
0065:  MOVWF  2D
0066:  MOVLW  20
0067:  MOVWF  2C
0068:  MOVLW  30
0069:  SUBWF  2E,W
006A:  BTFSC  03.2
006B:  GOTO   070
006C:  BSF    2B.0
006D:  BTFSC  2B.7
006E:  BSF    2B.1
006F:  GOTO   078
0070:  BTFSS  03.2
0071:  BSF    2B.0
0072:  BTFSS  03.2
0073:  GOTO   078
0074:  MOVF   2D,W
0075:  MOVWF  2E
0076:  MOVLW  20
0077:  MOVWF  2D
0078:  BTFSC  2B.2
0079:  GOTO   07F
007A:  BTFSC  2B.1
007B:  GOTO   083
007C:  BTFSC  2B.0
007D:  GOTO   087
007E:  GOTO   08B
007F:  MOVF   2C,W
0080:  BTFSS  0C.4
0081:  GOTO   080
0082:  MOVWF  19
0083:  MOVF   2D,W
0084:  BTFSS  0C.4
0085:  GOTO   084
0086:  MOVWF  19
0087:  MOVF   2E,W
0088:  BTFSS  0C.4
0089:  GOTO   088
008A:  MOVWF  19
008B:  MOVF   2F,W
008C:  BTFSS  0C.4
008D:  GOTO   08C
008E:  MOVWF  19
008F:  BCF    0A.3
0090:  BCF    0A.4
0091:  GOTO   210 (RETURN)
0092:  MOVF   0B,W
0093:  MOVWF  2A
0094:  BCF    0B.7
0095:  BSF    03.5
0096:  BSF    03.6
0097:  BSF    0C.7
0098:  BSF    0C.0
0099:  NOP
009A:  NOP
009B:  BCF    03.5
009C:  BCF    03.6
009D:  BTFSC  2A.7
009E:  BSF    0B.7
009F:  BSF    03.6
00A0:  MOVF   0C,W
00A1:  ANDLW  7F
00A2:  BTFSC  03.2
00A3:  GOTO   0E8
00A4:  BCF    03.6
00A5:  MOVWF  2A
00A6:  BSF    03.6
00A7:  MOVF   0D,W
00A8:  BCF    03.6
00A9:  MOVWF  2B
00AA:  BSF    03.6
00AB:  MOVF   0F,W
00AC:  BCF    03.6
00AD:  MOVWF  2C
00AE:  MOVF   2A,W
00AF:  BTFSS  0C.4
00B0:  GOTO   0AF
00B1:  MOVWF  19
00B2:  MOVF   2B,W
00B3:  BSF    03.6
00B4:  MOVWF  0D
00B5:  BCF    03.6
00B6:  MOVF   2C,W
00B7:  BSF    03.6
00B8:  MOVWF  0F
00B9:  BCF    03.6
00BA:  MOVF   0B,W
00BB:  MOVWF  2D
00BC:  BCF    0B.7
00BD:  BSF    03.5
00BE:  BSF    03.6
00BF:  BSF    0C.7
00C0:  BSF    0C.0
00C1:  NOP
00C2:  NOP
00C3:  BCF    03.5
00C4:  BCF    03.6
00C5:  BTFSC  2D.7
00C6:  BSF    0B.7
00C7:  BSF    03.6
00C8:  RLF    0C,W
00C9:  RLF    0E,W
00CA:  ANDLW  7F
00CB:  BTFSC  03.2
00CC:  GOTO   0E8
00CD:  BCF    03.6
00CE:  MOVWF  2A
00CF:  BSF    03.6
00D0:  MOVF   0D,W
00D1:  BCF    03.6
00D2:  MOVWF  2B
00D3:  BSF    03.6
00D4:  MOVF   0F,W
00D5:  BCF    03.6
00D6:  MOVWF  2C
00D7:  MOVF   2A,W
00D8:  BTFSS  0C.4
00D9:  GOTO   0D8
00DA:  MOVWF  19
00DB:  MOVF   2B,W
00DC:  BSF    03.6
00DD:  MOVWF  0D
00DE:  BCF    03.6
00DF:  MOVF   2C,W
00E0:  BSF    03.6
00E1:  MOVWF  0F
00E2:  INCF   0D,F
00E3:  BTFSC  03.2
00E4:  INCF   0F,F
00E5:  BCF    03.6
00E6:  GOTO   092
00E7:  BSF    03.6
00E8:  BCF    03.6
00E9:  RETURN
....................  
.................... #list 
....................  
.................... #fuses HS, NOWDT, BROWNOUT, NOLVP 
.................... #use delay (clock = 4000000) 
00EA:  MOVLW  2A
00EB:  MOVWF  04
00EC:  BCF    03.7
00ED:  MOVF   00,W
00EE:  BTFSC  03.2
00EF:  GOTO   0FE
00F0:  MOVLW  01
00F1:  MOVWF  78
00F2:  CLRF   77
00F3:  DECFSZ 77,F
00F4:  GOTO   0F3
00F5:  DECFSZ 78,F
00F6:  GOTO   0F2
00F7:  MOVLW  4A
00F8:  MOVWF  77
00F9:  DECFSZ 77,F
00FA:  GOTO   0F9
00FB:  GOTO   0FC
00FC:  DECFSZ 00,F
00FD:  GOTO   0F0
00FE:  RETURN
....................  
.................... /*#byte trisa = 0x85 
.................... #byte porta = 0x05 
.................... #byte trisb = 0x86 
.................... #byte portb = 0x06*/ 
....................  
.................... #use rs232(baud=9600, xmit=PIN_C6, rcv=PIN_C7) 
.................... #include <stdlib.h> 
.................... /////////////////////////////////////////////////////////////////////////// 
.................... ////        (C) Copyright 1996,2007 Custom Computer Services           //// 
.................... //// This source code may only be used by licensed users of the CCS C  //// 
.................... //// compiler.  This source code may only be distributed to other      //// 
.................... //// licensed users of the CCS C compiler.  No other use, reproduction //// 
.................... //// or distribution is permitted without written permission.          //// 
.................... //// Derivative programs created using this software in object code    //// 
.................... //// form are not restricted in any way.                               //// 
.................... /////////////////////////////////////////////////////////////////////////// 
....................  
.................... #ifndef _STDLIB 
.................... #define _STDLIB 
....................  
.................... //--------------------------------------------------------------------------- 
.................... // Definitions and types 
.................... //--------------------------------------------------------------------------- 
....................  
.................... #ifndef RAND_MAX 
.................... #define RAND_MAX  32767    // The value of which is the maximum value 
....................                            // ... returned by the rand function 
.................... #endif 
....................  
....................  
.................... #IF (sizeof(int16*)>1) 
.................... #DEFINE LONG_POINTERS 1 
.................... #ELSE  
.................... #DEFINE LONG_POINTERS 0 
.................... #ENDIF 
....................  
.................... typedef struct { 
....................    signed int quot; 
....................    signed int rem; 
.................... } div_t; 
....................  
.................... typedef struct { 
....................    signed long quot; 
....................    signed long rem; 
.................... } ldiv_t; 
....................  
.................... #include <stddef.h> 
.................... /////////////////////////////////////////////////////////////////////////// 
.................... ////        (C) Copyright 1996,2003 Custom Computer Services           //// 
.................... //// This source code may only be used by licensed users of the CCS C  //// 
.................... //// compiler.  This source code may only be distributed to other      //// 
.................... //// licensed users of the CCS C compiler.  No other use, reproduction //// 
.................... //// or distribution is permitted without written permission.          //// 
.................... //// Derivative programs created using this software in object code    //// 
.................... //// form are not restricted in any way.                               //// 
.................... /////////////////////////////////////////////////////////////////////////// 
....................  
.................... #ifndef _STDDEF 
....................  
.................... #define _STDDEF 
....................  
.................... #if sizeof(unsigned int8 *)==1 
.................... #define ptrdiff_t unsigned int8 
.................... #else 
.................... #define ptrdiff_t unsigned int16 
.................... #endif 
....................  
.................... #if defined(__PCB__) 
.................... #define size_t unsigned int8 
.................... #else 
.................... #define size_t unsigned int16 
.................... #endif 
.................... #define wchar_t char 
.................... #define NULL 0 
....................  
.................... #define offsetof(s,f) (offsetofbit(s,f)/8) 
....................  
.................... #endif 
....................  
....................  
.................... //--------------------------------------------------------------------------- 
.................... // String conversion functions 
.................... //--------------------------------------------------------------------------- 
....................  
.................... /* Standard template: signed int  atoi(char * s) 
....................  * converts the initial portion of the string s to a signed int 
....................  * returns the converted value if any, 0 otherwise 
....................  */ 
.................... signed int atoi(char *s); 
....................  
.................... /* Syntax: signed int32  atoi32(char * s) 
....................    converts the initial portion of the string s to a signed int32 
....................    returns the converted value if any, 0 otherwise*/ 
.................... #if (sizeof(long)==4) 
....................  #define atoi32(s) atol(s) 
.................... #else  
....................  signed int32 atoi32(char *s); 
.................... #endif 
....................  
.................... #if defined(__PCD__) 
.................... // The following functions only work on the 24 bit compiler 
.................... // for the 30F, 33F, 24F and 24H parts 
.................... /* Syntax: signed int48  atoi48(char * s) 
....................    converts the initial portion of the string s to a signed int48 
....................    returns the converted value if any, 0 otherwise*/ 
....................     
.................... signed int48 atoi48(char *s); 
....................  
.................... /* Syntax: signed int64  atoi64(char * s) 
....................    converts the initial portion of the string s to a signed int64 
....................    returns the converted value if any, 0 otherwise*/ 
.................... signed int64 atoi64(char *s); 
.................... #endif 
....................  
.................... /* Syntax: char *  itoa(signed int32 num, int8 base, char * s) 
....................    converts the signed int32 to a string and 
....................    returns the converted value if any, 0 otherwise*/ 
.................... char * itoa(signed int32 num, unsigned int base, char * s); 
....................  
.................... /* Standard template: signed int16  atol(char * s) 
....................  * converts the initial portion of the string s to a signed int16 
....................  * returns the converted value if any, 0 otherwise 
....................  */ 
.................... signed long atol(char *s); 
....................  
.................... /* Standard template: int16 strtoul(char * s,char *endptr,signed int base) 
....................  * converts the initial portion of the string s, represented as an 
....................  * integral value of radix base  to a signed long. 
....................  * Returns the converted value if any, 0 otherwise 
....................  * the final string is returned in the endptr, if endptr is not null 
....................  */ 
.................... signed long strtol(char *s,char *endptr, signed int base); 
....................  
.................... /* Standard template: int16 strtoul(char * s,char *endptr,signed int base) 
....................  * converts the initial portion of the string s, represented as an 
....................  * integral value of radix base to a unsigned long. 
....................  * returns the converted value if any, 0 otherwise 
....................  * the final string is returned in the endptr, if endptr is not null 
....................  */ 
.................... unsigned long strtoul(char *s,char *endptr, signed int base); 
....................  
.................... /* Standart template: float strtof(char * s,char *endptr) 
....................                       float48 strtof48(char *s,char *endptr); 
....................                       float64 strtod(char *s,char *endptr); 
....................  * converts the initial portion of the string s to a float32, float48 or float64, 
....................  * returns the converted value if any, 0 otherwise 
....................  * the final string is returned in the endptr, if endptr is not null                    
.................... */ 
.................... float strtof(char *s,char *endptr); 
.................... #if defined(__PCD__) 
.................... float48 strtof48(char *s,char *endptr); 
.................... float64 strtod(char *s,char *endptr); 
.................... #else 
.................... //provided for compatibility 
.................... #define strtof48(s, e) strtof(s, e) 
.................... #define strtod(s, e) strtof(s, e) 
.................... #endif 
....................  
.................... /* Standard template: float32 atof(char * s) 
....................  * converts the initial portion of the string s to a float. 
....................  * returns the converted value if any, 0 otherwise 
....................  */ 
.................... #define atof(s)   strtof(s, 0) 
....................  
.................... #if defined(__PCD__) 
.................... // The following functions only work on the 24 bit compiler 
.................... // for the 30F, 33F, 24F and 24H parts 
....................  
.................... /* Standard template: float48 atof48(char * s) 
....................  * converts the initial portion of the string s to a float. 
....................  * returns the converted value if any, 0 otherwise 
....................  */ 
.................... #define atof48(s) strtof48(s, 0) 
....................  
.................... /* Standard template: float64 atof64(char * s) 
....................  * converts the initial portion of the string s to a float. 
....................  * returns the converted value if any, 0 otherwise 
....................  */ 
.................... #define atof64(s) strtod(s, 0) 
.................... #endif 
....................  
.................... /* Standard template: float32 atoe(char * s) 
....................  * converts the initial portion of the string s to a float. 
....................  * returns the converted value if any, 0 otherwise 
....................  * also handles E format numbers 
....................  */ 
.................... #if !defined(__PCD__) 
.................... float atoe(char * s); 
.................... #endif 
....................  
.................... #if defined(__PCD__) 
.................... float32 atoe(char * s); 
.................... #endif 
....................  
.................... //--------------------------------------------------------------------------- 
.................... // Pseudo-random sequence generation functions 
.................... //--------------------------------------------------------------------------- 
....................  
.................... /* The rand function computes a sequence of pseudo-random integers in 
....................  * the range 0 to RAND_MAX 
....................  * 
....................  * Parameters: 
....................  *       (none) 
....................  * 
....................  * Returns: 
....................  *       The pseudo-random integer 
....................  */ 
.................... unsigned int16 rand(void); 
....................  
.................... /* The srand function uses the argument as a seed for a new sequence of 
....................  * pseudo-random numbers to be returned by subsequent calls to rand. 
....................  * 
....................  * Parameters: 
....................  *       [in] seed: The seed value to start from. You might need to pass 
....................  * 
....................  * Returns: 
....................  *       (none) 
....................  * 
....................  * Remarks 
....................  *          The srand function sets the starting point for generating 
....................  *       a series of pseudorandom integers. To reinitialize the 
....................  *       generator, use 1 as the seed argument. Any other value for 
....................  *       seed sets the generator to a random starting point. rand 
....................  *       retrieves the pseudorandom numbers that are generated. 
....................  *       Calling rand before any call to srand generates the same 
....................  *       sequence as calling srand with seed passed as 1. 
....................  *          Usually, you need to pass a time here from outer source 
....................  *       so that the numbers will be different every time you run. 
....................  */ 
.................... void srand(unsigned int32 seed); 
....................  
.................... //--------------------------------------------------------------------------- 
.................... // Memory management functions 
.................... //--------------------------------------------------------------------------- 
....................  
.................... // Comming soon 
....................  
.................... //--------------------------------------------------------------------------- 
.................... // Communication with the environment 
.................... //--------------------------------------------------------------------------- 
....................  
.................... /* The function returns 0 always 
....................  */ 
.................... signed int8 system(char *string); 
....................  
.................... //--------------------------------------------------------------------------- 
.................... // Searching and sorting utilities 
.................... //--------------------------------------------------------------------------- 
....................  
.................... /* Performs a binary search of a sorted array.. 
....................  * 
....................  * Parameters: 
....................  *       [in] key: Object to search for 
....................  *       [in] base: Pointer to base of search data 
....................  *       [in] num: Number of elements 
....................  *       [in] width: Width of elements 
....................  *       [in] compare: Function that compares two elements 
....................  * 
....................  * Returns: 
....................  *       bsearch returns a pointer to an occurrence of key in the array pointed 
....................  *       to by base. If key is not found, the function returns NULL. If the 
....................  *       array is not in order or contains duplicate records with identical keys, 
....................  *       the result is unpredictable. 
....................  */ 
.................... //void *bsearch(const void *key, const void *base, size_t num, size_t width, 
.................... //              int (*compare)(const void *, const void *)); 
....................  
.................... /* Performs the shell-metzner sort (not the quick sort algorithm). The contents 
....................  * of the array are sorted into ascending order according to a comparison 
....................  * function pointed to by compar. 
....................  * 
....................  * Parameters: 
....................  *       [in] base: Pointer to base of search data 
....................  *       [in] num: Number of elements 
....................  *       [in] width: Width of elements 
....................  *       [in] compare: Function that compares two elements 
....................  * 
....................  * Returns: 
....................  *       (none) 
....................  */ 
.................... //void *qsort(const void *base, size_t num, size_t width, 
.................... //              int (*compare)(const void *, const void *)); 
....................  
.................... //--------------------------------------------------------------------------- 
.................... // Integer arithmetic functions 
.................... //--------------------------------------------------------------------------- 
....................  
.................... #define labs abs 
....................  
.................... div_t div(signed int numer, signed int denom); 
.................... ldiv_t ldiv(signed long numer, signed long denom); 
....................  
.................... //--------------------------------------------------------------------------- 
.................... // Multibyte character functions 
.................... //--------------------------------------------------------------------------- 
....................  
.................... // Not supported 
....................  
.................... //--------------------------------------------------------------------------- 
.................... // Multibyte string functions 
.................... //--------------------------------------------------------------------------- 
....................  
.................... // Not supported 
....................  
....................  
.................... //--------------------------------------------------------------------------- 
.................... // Internal implementation 
.................... //--------------------------------------------------------------------------- 
....................  
.................... #include <stddef.h> 
.................... /////////////////////////////////////////////////////////////////////////// 
.................... ////        (C) Copyright 1996,2003 Custom Computer Services           //// 
.................... //// This source code may only be used by licensed users of the CCS C  //// 
.................... //// compiler.  This source code may only be distributed to other      //// 
.................... //// licensed users of the CCS C compiler.  No other use, reproduction //// 
.................... //// or distribution is permitted without written permission.          //// 
.................... //// Derivative programs created using this software in object code    //// 
.................... //// form are not restricted in any way.                               //// 
.................... /////////////////////////////////////////////////////////////////////////// 
....................  
.................... #ifndef _STDDEF 
....................  
.................... #define _STDDEF 
....................  
.................... #if sizeof(unsigned int8 *)==1 
.................... #define ptrdiff_t unsigned int8 
.................... #else 
.................... #define ptrdiff_t unsigned int16 
.................... #endif 
....................  
.................... #if defined(__PCB__) 
.................... #define size_t unsigned int8 
.................... #else 
.................... #define size_t unsigned int16 
.................... #endif 
.................... #define wchar_t char 
.................... #define NULL 0 
....................  
.................... #define offsetof(s,f) (offsetofbit(s,f)/8) 
....................  
.................... #endif 
....................  
.................... #include <string.h> 
.................... //////////////////////////////////////////////////////////////////////////// 
.................... ////        (C) Copyright 1996,2008 Custom Computer Services            //// 
.................... //// This source code may only be used by licensed users of the CCS C   //// 
.................... //// compiler.  This source code may only be distributed to other       //// 
.................... //// licensed users of the CCS C compiler.  No other use, reproduction  //// 
.................... //// or distribution is permitted without written permission.           //// 
.................... //// Derivative programs created using this software in object code     //// 
.................... //// form are not restricted in any way.                                //// 
.................... //////////////////////////////////////////////////////////////////////////// 
....................  
.................... #ifndef _STRING 
.................... #define _STRING 
.................... #include <stddef.h> 
.................... /////////////////////////////////////////////////////////////////////////// 
.................... ////        (C) Copyright 1996,2003 Custom Computer Services           //// 
.................... //// This source code may only be used by licensed users of the CCS C  //// 
.................... //// compiler.  This source code may only be distributed to other      //// 
.................... //// licensed users of the CCS C compiler.  No other use, reproduction //// 
.................... //// or distribution is permitted without written permission.          //// 
.................... //// Derivative programs created using this software in object code    //// 
.................... //// form are not restricted in any way.                               //// 
.................... /////////////////////////////////////////////////////////////////////////// 
....................  
.................... #ifndef _STDDEF 
....................  
.................... #define _STDDEF 
....................  
.................... #if sizeof(unsigned int8 *)==1 
.................... #define ptrdiff_t unsigned int8 
.................... #else 
.................... #define ptrdiff_t unsigned int16 
.................... #endif 
....................  
.................... #if defined(__PCB__) 
.................... #define size_t unsigned int8 
.................... #else 
.................... #define size_t unsigned int16 
.................... #endif 
.................... #define wchar_t char 
.................... #define NULL 0 
....................  
.................... #define offsetof(s,f) (offsetofbit(s,f)/8) 
....................  
.................... #endif 
....................  
.................... #include <ctype.h> 
.................... //////////////////////////////////////////////////////////////////////////// 
.................... ////        (C) Copyright 1996,2003 Custom Computer Services            //// 
.................... //// This source code may only be used by licensed users of the CCS C   //// 
.................... //// compiler.  This source code may only be distributed to other       //// 
.................... //// licensed users of the CCS C compiler.  No other use, reproduction  //// 
.................... //// or distribution is permitted without written permission.           //// 
.................... //// Derivative programs created using this software in object code     //// 
.................... //// form are not restricted in any way.                                //// 
.................... //////////////////////////////////////////////////////////////////////////// 
....................  
.................... #ifndef _CTYPE 
.................... #define _CTYPE 
....................  
.................... #define islower(x)  isamong(x,"abcdefghijklmnopqrstuvwxyz") 
.................... #define isupper(x)  isamong(x,"ABCDEFGHIJKLMNOPQRSTUVWXYZ") 
.................... #define isalnum(x)  isamong(x,"0123456789ABCDEFGHIJKLMNOPQRSTUVWXYZabcdefghijklmnopqrstuvwxyz") 
.................... #define isalpha(x)  isamong(x,"ABCDEFGHIJKLMNOPQRSTUVWXYZabcdefghijklmnopqrstuvwxyz") 
.................... #define isdigit(x)  isamong(x,"0123456789") 
.................... #define isspace(x)  ((x)==' ') 
.................... #define isxdigit(x) isamong(x,"0123456789ABCDEFabcdef") 
.................... #define iscntrl(x)  ((x)<' ') 
.................... #define isprint(x)  ((x)>=' ') 
.................... #define isgraph(x)  ((x)>' ') 
.................... #define ispunct(x)  (((x)>' ')&&!isalnum(x)) 
....................  
.................... #endif 
....................  
....................  
....................  
....................  
....................  
.................... ////////////////////////////////////////////// 
.................... //// Uncomment the following define to    //// 
.................... //// allow some functions to use a        //// 
.................... //// quicker algorithm, but use more ROM  //// 
.................... ////                                      //// 
.................... //// #define FASTER_BUT_MORE_ROM          //// 
.................... ////////////////////////////////////////////// 
....................  
....................  
....................  
.................... /*Copying functions*/ 
.................... /* standard template: 
....................    void *memmove(void *s1, void *s2, size_t n). 
....................    Copies max of n characters safely (not following ending '\0') 
....................    from s2 in s1; if s2 has less than n characters, appends 0 */ 
....................  
.................... unsigned char *memmove(void *s1,void *s2,size_t n) 
.................... { 
....................    unsigned char *sc1; 
....................    unsigned char *sc2; 
....................    sc1=s1; 
....................    sc2=s2; 
....................    if(sc2<sc1 && sc1 <sc2 +n) 
....................       for(sc1+=n,sc2+=n;0<n;--n) 
....................          *--sc1=*--sc2; 
....................    else 
....................       for(;0<n;--n) 
....................          *sc1++=*sc2++; 
....................   return s1; 
....................   } 
....................  
.................... /* Standard template: char *strcpy(char *s1, const char *s2) 
....................    copies the string s2 including the null character to s1. 
....................    This is a compiler built in to handle the different address 
....................    spaces */ 
....................  
.................... #define strcopy strcpy 
....................  
.................... /* standard template: 
....................    char *strncpy(char *s1, const char *s2, size_t n). 
....................    Copies max of n characters (not following ending '\0') 
....................    from s2 in s1; if s2 has less than n characters, appends 0 */ 
....................  
.................... unsigned char *strncpy(unsigned char *s1, unsigned char *s2, size_t n) 
.................... { 
....................   unsigned char *s; 
....................  
....................   for (s = s1; n > 0 && *s2 != '\0'; n--) 
....................      *s++ = *s2++; 
....................   for (; n > 0; n--) 
....................      *s++ = '\0'; 
....................  
....................   return(s1); 
.................... } 
.................... /***********************************************************/ 
....................  
.................... /*concatenation functions*/ 
.................... /* standard template: char *strcat(char *s1, const char *s2) 
.................... appends s2 to s1*/ 
....................  
.................... unsigned char *strcat(unsigned char *s1, unsigned char *s2) 
.................... { 
....................    unsigned char *s; 
....................  
....................    for (s = s1; *s != '\0'; ++s); 
....................    while(*s2 != '\0') 
....................    { 
....................       *s = *s2; 
....................       ++s; 
....................       ++s2; 
....................    } 
....................  
....................    *s = '\0'; 
....................    return(s1); 
.................... } 
.................... /* standard template: char *strncat(char *s1, char *s2,size_t n) 
.................... appends not more than n characters from s2 to s1*/ 
....................  
.................... unsigned char *strncat(unsigned char *s1, unsigned char *s2, size_t n) 
.................... { 
....................    unsigned char *s; 
....................  
....................    for (s = s1; *s != '\0'; ++s); 
....................    while(*s2 != '\0' && 0<n) 
....................    { 
....................       *s = *s2; 
....................       ++s; 
....................       ++s2; 
....................       --n; 
....................    } 
....................  
....................    *s = '\0'; 
....................    return(s1); 
.................... } 
....................  
.................... /***********************************************************/ 
....................  
....................  
.................... /*comparison functions*/ 
.................... /* standard template: signed int memcmp(void *s1, void *s2). 
....................    Compares s1 & s2; returns -1 if s1<s2, 0 if s1=s2, 1 if s1>s2 */ 
....................  
.................... signed int8 memcmp(void * s1,void *s2,size_t n) 
.................... { 
.................... unsigned char *su1, *su2; 
.................... for(su1=s1, su2=s2; 0<n; ++su1, ++su2, --n) 
.................... { 
....................    if(*su1!=*su2) 
....................       return ((*su1<*su2)?-1:1); 
.................... } 
.................... return 0; 
.................... } 
....................  
.................... /* standard template: int strcmp(const char *s1, const char *s2). 
....................    Compares s1 & s2; returns -1 if s1<s2, 0 if s1=s2, 1 if s1>s2 */ 
....................  
.................... signed int8 strcmp(unsigned char *s1, unsigned char *s2) 
.................... { 
....................    for (; *s1 == *s2; s1++, s2++) 
....................       if (*s1 == '\0') 
....................          return(0); 
....................    return((*s1 < *s2) ? -1: 1); 
.................... } 
.................... /* standard template: int strcoll(const char *s1, const char *s2). 
....................    Compares s1 & s2; returns -1 if s1<s2, 0 if s1=s2, 1 if s1>s2 */ 
....................  
.................... signed int8 strcoll(unsigned char *s1, unsigned char *s2) 
.................... { 
....................    for (; *s1 == *s2; s1++, s2++) 
....................       if (*s1 == '\0') 
....................          return(0); 
....................    return((*s1 < *s2) ? -1: 1); 
.................... } 
....................  
.................... /* standard template: 
....................    int strncmp(const char *s1, const char *s2, size_t n). 
....................    Compares max of n characters (not following 0) from s1 to s2; 
....................    returns same as strcmp */ 
....................  
.................... signed int8 strncmp(unsigned char *s1, unsigned char *s2, size_t n) 
.................... { 
....................    for (; n > 0; s1++, s2++, n--) 
....................       if (*s1 != *s2) 
....................          return((*s1 <*s2) ? -1: 1); 
....................       else if (*s1 == '\0') 
....................          return(0); 
....................    return(0); 
.................... } 
.................... /* standard template: 
....................    int strxfrm(const char *s1, const char *s2, size_t n). 
....................    transforms maximum of n characters from s2 and places them into s1*/ 
.................... size_t strxfrm(unsigned char *s1, unsigned char *s2, size_t n) 
.................... { 
....................   unsigned char *s; 
....................   unsigned int8 n1; 
....................   n1=n; 
....................   for (s = s1; n > 0 && *s2 != '\0'; n--) 
....................      *s++ = *s2++; 
....................   for (; n > 0; n--) 
....................      *s++ = '\0'; 
....................  
....................   return(n1); 
.................... } 
....................  
....................  
....................  
....................  
....................  
.................... /***********************************************************/ 
.................... /*Search functions*/ 
.................... /* standard template: void *memchr(const char *s, int c). 
....................    Finds first occurrence of c in n characters of s */ 
....................  
.................... unsigned char *memchr(void *s,unsigned int8 c,size_t n) 
.................... { 
....................    unsigned char uc; 
....................    unsigned char *su; 
....................    uc=c; 
....................    for(su=s;0<n;++su,--n) 
....................       if(*su==uc) 
....................       return su; 
....................    return NULL; 
.................... } 
....................  
.................... /* standard template: char *strchr(const char *s, int c). 
....................    Finds first occurrence of c in s */ 
....................  
.................... unsigned char *strchr(unsigned char *s, unsigned int8 c) 
.................... { 
....................    for (; *s != c; s++) 
....................       if (*s == '\0') 
....................          return(0); 
....................    return(s); 
.................... } 
.................... /* standard template: 
....................    size_t strcspn(const char *s1, const char *s2). 
....................    Computes length of max initial segment of s1 that 
....................    consists entirely of characters NOT from s2*/ 
....................  
.................... unsigned int8  strcspn(unsigned char *s1, unsigned char *s2) 
.................... { 
....................    unsigned char *sc1, *sc2; 
....................  
....................    for (sc1 = s1; *sc1 != 0; sc1++) 
....................       for (sc2 = s2; *sc2 != 0; sc2++) 
....................          if (*sc1 == *sc2) 
....................             return(sc1 - s1); 
....................    return(sc1 - s1); 
.................... } 
.................... /* standard template: 
....................    char *strpbrk(const char *s1, const char *s2). 
....................    Locates first occurence of any character from s2 in s1; 
....................    returns s1 if s2 is empty string */ 
....................  
.................... unsigned char *strpbrk(unsigned char *s1, unsigned char *s2) 
.................... { 
....................    unsigned char *sc1, *sc2; 
....................  
....................    for (sc1 = s1; *sc1 != 0; sc1++) 
....................       for (sc2 = s2; *sc2 != 0; sc2++) 
....................          if (*sc1 == *sc2) 
....................             return(sc1); 
....................    return(0); 
.................... } 
....................  
....................  
.................... /* standard template: char *strrchr(const char *s, int c). 
....................    Finds last occurrence of c in s */ 
....................  
.................... unsigned char *strrchr(unsigned char *s, unsigned int8 c) 
.................... { 
....................    unsigned char *p; 
....................  
....................    for (p = 0; ; s++) 
....................    { 
....................       if (*s == c) 
....................          p = s; 
....................       if (*s == '\0') 
....................          return(p); 
....................    } 
.................... } 
.................... /* computes length of max initial segment of s1 consisting 
....................    entirely of characters from s2 */ 
....................  
.................... unsigned int8  strspn(unsigned char *s1, unsigned char *s2) 
.................... { 
....................    unsigned char *sc1, *sc2; 
....................  
....................    for (sc1 = s1; *sc1 != 0; sc1++) 
....................       for (sc2 = s2; ; sc2++) 
....................     if (*sc2 == '\0') 
....................        return(sc1 - s1); 
....................          else if (*sc1 == *sc2) 
....................             break; 
....................    return(sc1 - s1); 
.................... } 
.................... /* standard template: 
....................    char *strstr(const char *s1, const char *s2); 
....................    Locates first occurence of character sequence s2 in s1; 
....................    returns 0 if s2 is empty string 
....................  
....................    Uncomment #define FASTER_BUT_MORE_ROM at the top of the 
....................    file to use the faster algorithm */ 
.................... unsigned char *strstr(unsigned char *s1, unsigned char *s2) 
.................... { 
....................    unsigned char *s, *t; 
....................  
....................    #ifdef FASTER_BUT_MORE_ROM 
....................    if (*s2 == '\0') 
....................          return(s1); 
....................    #endif 
....................  
....................    while (*s1) 
....................    { 
....................       for(s = s1, t = s2; *t && (*s == *t); ++s, ++t); 
....................  
....................       if (*t == '\0') 
....................          return s1; 
....................       ++s1; 
....................       #ifdef FASTER_BUT_MORE_ROM 
....................          while(*s1 != '\0' && *s1 != *s2) 
....................             ++s1; 
....................       #endif 
....................    } 
....................    return 0; 
.................... } 
....................  
.................... /* standard template: char *strtok(char *s1, const char *s2). 
....................  
....................    Finds next token in s1 delimited by a character from separator 
....................    string s2 (which can be different from call to call).  First call 
....................    starts at beginning of s1 searching for first character NOT 
....................    contained in s2; returns 0 if none is found. 
....................    If one is found, it is the start of first token (return value). 
....................    Function then searches from there for a character contained in s2. 
....................    If none is found, current token extends to end of s1, and subsequent 
....................    searches for a token will return 0.  If one is found, it is 
....................    overwritten by '\0', which terminates current token.  Function saves 
....................    pointer to following character from which next search will start. 
....................    Each subsequent call, with 0 as first argument, starts searching 
....................    from saved pointer */ 
....................  
.................... unsigned char *strtok(unsigned char *s1, unsigned char *s2) 
.................... { 
....................    unsigned char *beg, *end; 
....................    static char *save; 
*
01F2:  BCF    03.5
01F3:  CLRF   20
01F4:  CLRF   21
....................  
....................    beg = (s1)? s1: save; 
....................    beg += strspn(beg, s2); 
....................    if (*beg == '\0') 
....................    { 
....................       *save = ' '; 
....................       return(0); 
....................    } 
....................    end = strpbrk(beg, s2); 
....................    if (*end != '\0') 
....................    { 
....................       *end = '\0'; 
....................       end++; 
....................    } 
....................    save = end; 
....................    return(beg); 
.................... } 
....................  
.................... /*****************************************************************/ 
.................... /*Miscellaneous functions*/ 
.................... /* standard template 
.................... maps error number in errnum to an error message string 
.................... Returns: Pointer to string 
.................... */ 
.................... #ifdef _ERRNO 
.................... unsigned char * strerror(unsigned int8 errnum) 
.................... { 
.................... static unsigned char s[13]; 
.................... switch( errnum) 
.................... { 
.................... case 0: 
....................    strcpy(s,"no errors"); 
....................    return s; 
.................... case EDOM : 
....................    strcpy(s,"domain error"); 
....................    return s; 
.................... case ERANGE: 
....................    strcpy(s,"range error"); 
....................    return s; 
.................... } 
.................... } 
.................... #ENDIF 
.................... /* standard template: size_t strlen(const char *s). 
....................    Computes length of s1 (preceding terminating 0) */ 
....................  
.................... unsigned int8 strlen(unsigned char *s) 
.................... { 
....................    unsigned char *sc; 
....................  
....................    for (sc = s; *sc != 0; sc++); 
....................    return(sc - s); 
.................... } 
....................  
.................... /* standard template: size_t stricmp(const char *s1, const char *s2). 
....................    Compares s1 to s2 ignoring case (upper vs. lower) */ 
....................  
.................... signed int8 stricmp(unsigned char *s1, unsigned char *s2) 
.................... { 
....................  for(; *s1==*s2||(isalpha(*s1)&&isalpha(*s2)&&(*s1==*s2+32||*s2==*s1+32)); 
....................     s1++, s2++) 
....................     if (*s1 == '\0') 
....................        return(0); 
....................  return((*s1 < *s2) ? -1: 1); 
.................... } 
....................  
....................  
.................... /* standard template: char *strlwr(char *s). 
....................    Replaces uppercase letters by lowercase; 
....................    returns pointer to new string s */ 
....................  
.................... unsigned char *strlwr(unsigned char *s) 
.................... { 
....................    unsigned char *p; 
....................  
....................    for (p = s; *p != '\0'; p++) 
....................       if (*p >= 'A' && *p <='Z') 
....................          *p += 'a' - 'A'; 
....................    return(s); 
.................... } 
....................  
.................... /* standard template: char *strupr(char *s). 
....................    Replaces lowercase letters by upercase; 
....................    returns pointer to new string s */ 
....................  
.................... unsigned char *strupr(unsigned char *s) 
.................... { 
....................    unsigned char *p; 
....................  
....................    for (p = s; *p != '\0'; p++) 
....................       if (*p >= 'a' && *p <='z') 
....................          *p -= 'a' - 'A'; 
....................    return(s); 
.................... } 
....................  
....................  
.................... /************************************************************/ 
....................  
....................  
.................... #endif 
....................  
....................  
.................... div_t div(signed int numer, signed int denom) 
.................... { 
....................    div_t val; 
....................    val.quot = numer / denom; 
....................    val.rem = numer - (denom * val.quot); 
....................    return (val); 
.................... } 
....................  
.................... ldiv_t ldiv(signed long numer, signed long denom) 
.................... { 
....................    ldiv_t val; 
....................  
....................    val.quot = numer / denom; 
....................    val.rem = numer - (denom * val.quot); 
....................    return (val); 
.................... } 
....................  
.................... #if defined(__PCD__) 
.................... float32 atoe(char * s) 
.................... { 
....................    float32 pow10 = 1.0; 
....................    float32 result = 0.0; 
....................    unsigned int8 sign = 0; 
....................    unsigned int8 expsign = 0; 
....................    char c; 
....................    unsigned int8 ptr = 0; 
....................    unsigned int8 i; 
....................    float32 exp = 1.0; 
....................    unsigned int8 expcnt = 0; 
....................  
....................    c = s[ptr++]; 
....................  
....................    if ((c>='0' && c<='9') || c=='+' || c=='-' || c=='.' || c=='E' || c=='e') { 
....................       if(c == '-') { 
....................          sign = 1; 
....................          c = s[ptr++]; 
....................       } 
....................       if(c == '+') 
....................          c = s[ptr++]; 
....................  
....................       while((c >= '0' && c <= '9')) { 
....................          result = 10*result + c - '0'; 
....................          c = s[ptr++]; 
....................       } 
....................  
....................       if (c == '.') { 
....................          c = s[ptr++]; 
....................          while((c >= '0' && c <= '9')) { 
....................              pow10 = pow10*10; 
....................              result += (c - '0')/pow10; 
....................              c = s[ptr++]; 
....................          } 
....................       } 
....................  
....................       // Handling the exponent 
....................       if (c=='e' || c=='E') { 
....................          c = s[ptr++]; 
....................  
....................          if(c == '-') { 
....................             expsign = 1; 
....................             c = s[ptr++]; 
....................          } 
....................          if(c == '+') 
....................             c = s[ptr++]; 
....................  
....................          while((c >= '0' && c <= '9')) { 
....................             expcnt = 10*expcnt + c - '0'; 
....................             c = s[ptr++]; 
....................          } 
....................  
....................          for(i=0;i<expcnt;i++) 
....................             exp*=10; 
....................  
....................          if(expsign==1) 
....................             result/=exp; 
....................          else 
....................             result*=exp; 
....................       } 
....................    } 
....................  
....................    if (sign == 1) 
....................       result = -1*result; 
....................    return(result); 
.................... } 
.................... #endif 
....................  
.................... #if !defined(__PCD__) 
.................... float atoe(char * s) 
.................... { 
....................    float pow10 = 1.0; 
....................    float result = 0.0; 
....................    unsigned int8 sign = 0; 
....................    unsigned int8 expsign = 0; 
....................    char c; 
....................    unsigned int8 ptr = 0; 
....................    unsigned int8 i; 
....................    float exp = 1.0; 
....................    unsigned int8 expcnt = 0; 
....................  
....................    c = s[ptr++]; 
....................  
....................    if ((c>='0' && c<='9') || c=='+' || c=='-' || c=='.' || c=='E' || c=='e') { 
....................       if(c == '-') { 
....................          sign = 1; 
....................          c = s[ptr++]; 
....................       } 
....................       if(c == '+') 
....................          c = s[ptr++]; 
....................  
....................       while((c >= '0' && c <= '9')) { 
....................          result = 10*result + c - '0'; 
....................          c = s[ptr++]; 
....................       } 
....................  
....................       if (c == '.') { 
....................          c = s[ptr++]; 
....................          while((c >= '0' && c <= '9')) { 
....................              pow10 = pow10*10; 
....................              result += (c - '0')/pow10; 
....................              c = s[ptr++]; 
....................          } 
....................       } 
....................  
....................       // Handling the exponent 
....................       if (c=='e' || c=='E') { 
....................          c = s[ptr++]; 
....................  
....................          if(c == '-') { 
....................             expsign = 1; 
....................             c = s[ptr++]; 
....................          } 
....................          if(c == '+') 
....................             c = s[ptr++]; 
....................  
....................          while((c >= '0' && c <= '9')) { 
....................             expcnt = 10*expcnt + c - '0'; 
....................             c = s[ptr++]; 
....................          } 
....................  
....................          for(i=0;i<expcnt;i++) 
....................             exp*=10; 
....................  
....................          if(expsign==1) 
....................             result/=exp; 
....................          else 
....................             result*=exp; 
....................       } 
....................    } 
....................  
....................    if (sign == 1) 
....................       result = -1*result; 
....................    return(result); 
.................... } 
.................... #endif 
....................  
.................... signed int atoi(char *s) 
.................... { 
....................    signed int result; 
....................    unsigned int sign, base, index; 
....................    char c; 
....................  
....................    index = 0; 
....................    sign = 0; 
....................    base = 10; 
....................    result = 0; 
....................  
....................    if (!s) 
....................       return 0; 
....................    // Omit all preceeding alpha characters 
....................    c = s[index++]; 
....................  
....................    // increase index if either positive or negative sign is detected 
....................    if (c == '-') 
....................    { 
....................       sign = 1;         // Set the sign to negative 
....................       c = s[index++]; 
....................    } 
....................    else if (c == '+') 
....................    { 
....................       c = s[index++]; 
....................    } 
....................  
....................    if (c >= '0' && c <= '9') 
....................    { 
....................  
....................       // Check for hexa number 
....................       if (c == '0' && (s[index] == 'x' || s[index] == 'X')) 
....................       { 
....................          base = 16; 
....................          index++; 
....................          c = s[index++]; 
....................       } 
....................  
....................       // The number is a decimal number 
....................       if (base == 10) 
....................       { 
....................          while (c >= '0' && c <= '9') 
....................          { 
....................             result = 10*result + (c - '0'); 
....................             c = s[index++]; 
....................          } 
....................       } 
....................       else if (base == 16)    // The number is a hexa number 
....................       { 
....................          c = toupper(c); 
....................          while ( (c >= '0' && c <= '9') || (c >= 'A' && c<='F')) 
....................          { 
....................             if (c >= '0' && c <= '9') 
....................                result = (result << 4) + (c - '0'); 
....................             else 
....................                result = (result << 4) + (c - 'A' + 10); 
....................  
....................             c = s[index++]; 
....................             c = toupper(c); 
....................          } 
....................       } 
....................    } 
....................  
....................    if (sign == 1 && base == 10) 
....................        result = -result; 
....................  
....................    return(result); 
.................... } 
....................  
.................... signed long atol(char *s) 
.................... { 
....................    signed long result; 
....................    unsigned int sign, base, index; 
....................    char c; 
....................  
....................    index = 0; 
....................    sign = 0; 
....................    base = 10; 
....................    result = 0; 
....................  
....................    if (!s) 
....................       return 0; 
....................    c = s[index++]; 
....................  
....................    // increase index if either positive or negative sign is detected 
....................    if (c == '-') 
....................    { 
....................       sign = 1;         // Set the sign to negative 
....................       c = s[index++]; 
....................    } 
....................    else if (c == '+') 
....................    { 
....................       c = s[index++]; 
....................    } 
....................  
....................    if (c >= '0' && c <= '9') 
....................    { 
....................       if (c == '0' && (s[index] == 'x' || s[index] == 'X')) 
....................       { 
....................          base = 16; 
....................          index++; 
....................          c = s[index++]; 
....................       } 
....................  
....................       // The number is a decimal number 
....................       if (base == 10) 
....................       { 
....................          while (c >= '0' && c <= '9') 
....................          { 
....................             result = 10*result + (c - '0'); 
....................             c = s[index++]; 
....................          } 
....................       } 
....................       else if (base == 16)    // The number is a hexa number 
....................       { 
....................          c = toupper(c); 
....................          while ( (c >= '0' && c <= '9') || (c >= 'A' && c <='F')) 
....................          { 
....................             if (c >= '0' && c <= '9') 
....................                result = (result << 4) + (c - '0'); 
....................             else 
....................                result = (result << 4) + (c - 'A' + 10); 
....................  
....................             c = s[index++];c = toupper(c); 
....................          } 
....................       } 
....................    } 
....................  
....................    if (base == 10 && sign == 1) 
....................       result = -result; 
....................  
....................    return(result); 
.................... } 
....................  
.................... /* A fast routine to multiply by 10 
....................  */ 
.................... signed int32 mult_with10(int32 num) 
.................... { 
....................    return ( (num << 1) + (num << 3) ); 
.................... } 
....................  
.................... #if sizeof(long)==2 
.................... signed int32 atoi32(char *s) 
.................... { 
....................    signed int32 result; 
....................    int8 sign, base, index; 
....................    char c; 
....................  
....................    index = 0; 
....................    sign = 0; 
....................    base = 10; 
....................    result = 0; 
....................  
....................    if (!s) 
....................       return 0; 
....................    c = s[index++]; 
....................  
....................    // increase index if either positive or negative sign is detected 
....................    if (c == '-') 
....................    { 
....................       sign = 1;         // Set the sign to negative 
....................       c = s[index++]; 
....................    } 
....................    else if (c == '+') 
....................    { 
....................       c = s[index++]; 
....................    } 
....................  
....................    if (c >= '0' && c <= '9') 
....................    { 
....................       if (c == '0' && (s[index] == 'x' || s[index] == 'X')) 
....................       { 
....................          base = 16; 
....................          index++; 
....................          c = s[index++]; 
....................       } 
....................  
....................       // The number is a decimal number 
....................       if (base == 10) 
....................       { 
....................          while (c >= '0' && c <= '9') { 
....................             result = (result << 1) + (result << 3);  // result *= 10; 
....................             result += (c - '0'); 
....................             c = s[index++]; 
....................          } 
....................       } 
....................       else if (base == 16)    // The number is a hexa number 
....................       { 
....................          c = toupper(c); 
....................          while ((c >= '0' && c <= '9') || (c >= 'A' && c <='F')) 
....................          { 
....................             if (c >= '0' && c <= '9') 
....................                result = (result << 4) + (c - '0'); 
....................             else 
....................                result = (result << 4) + (c - 'A' + 10); 
....................  
....................             c = s[index++];c = toupper(c); 
....................          } 
....................       } 
....................    } 
....................  
....................    if (base == 10 && sign == 1) 
....................       result = -result; 
....................  
....................    return(result); 
.................... } 
.................... #endif 
....................  
.................... #if defined(__PCD__) 
....................  
.................... signed int48 atoi48(char *s) 
.................... { 
....................    signed int48 result; 
....................    int8 sign, base, index; 
....................    char c; 
....................  
....................    index = 0; 
....................    sign = 0; 
....................    base = 10; 
....................    result = 0; 
....................  
....................    if (!s) 
....................       return 0; 
....................    c = s[index++]; 
....................  
....................    // increase index if either positive or negative sign is detected 
....................    if (c == '-') 
....................    { 
....................       sign = 1;         // Set the sign to negative 
....................       c = s[index++]; 
....................    } 
....................    else if (c == '+') 
....................    { 
....................       c = s[index++]; 
....................    } 
....................  
....................    if (c >= '0' && c <= '9') 
....................    { 
....................       if (c == '0' && (s[index] == 'x' || s[index] == 'X')) 
....................       { 
....................          base = 16; 
....................          index++; 
....................          c = s[index++]; 
....................       } 
....................  
....................       // The number is a decimal number 
....................       if (base == 10) 
....................       { 
....................          while (c >= '0' && c <= '9') { 
....................             result = (result << 1) + (result << 3);  // result *= 10; 
....................             result += (c - '0'); 
....................             c = s[index++]; 
....................          } 
....................       } 
....................       else if (base == 16)    // The number is a hexa number 
....................       { 
....................          c = toupper(c); 
....................          while ((c >= '0' && c <= '9') || (c >= 'A' && c <='F')) 
....................          { 
....................             if (c >= '0' && c <= '9') 
....................                result = (result << 4) + (c - '0'); 
....................             else 
....................                result = (result << 4) + (c - 'A' + 10); 
....................  
....................             c = s[index++];c = toupper(c); 
....................          } 
....................       } 
....................    } 
....................  
....................    if (base == 10 && sign == 1) 
....................       result = -result; 
....................  
....................    return(result); 
.................... } 
....................  
.................... signed int64 atoi64(char *s) 
.................... { 
....................    signed int64 result; 
....................    int8 sign, base, index; 
....................    char c; 
....................  
....................    index = 0; 
....................    sign = 0; 
....................    base = 10; 
....................    result = 0; 
....................  
....................    if (!s) 
....................       return 0; 
....................    c = s[index++]; 
....................  
....................    // increase index if either positive or negative sign is detected 
....................    if (c == '-') 
....................    { 
....................       sign = 1;         // Set the sign to negative 
....................       c = s[index++]; 
....................    } 
....................    else if (c == '+') 
....................    { 
....................       c = s[index++]; 
....................    } 
....................  
....................    if (c >= '0' && c <= '9') 
....................    { 
....................       if (c == '0' && (s[index] == 'x' || s[index] == 'X')) 
....................       { 
....................          base = 16; 
....................          index++; 
....................          c = s[index++]; 
....................       } 
....................  
....................       // The number is a decimal number 
....................       if (base == 10) 
....................       { 
....................          while (c >= '0' && c <= '9') { 
....................             result = (result << 1) + (result << 3);  // result *= 10; 
....................             result += (c - '0'); 
....................             c = s[index++]; 
....................          } 
....................       } 
....................       else if (base == 16)    // The number is a hexa number 
....................       { 
....................          c = toupper(c); 
....................          while ((c >= '0' && c <= '9') || (c >= 'A' && c <='F')) 
....................          { 
....................             if (c >= '0' && c <= '9') 
....................                result = (result << 4) + (c - '0'); 
....................             else 
....................                result = (result << 4) + (c - 'A' + 10); 
....................  
....................             c = s[index++];c = toupper(c); 
....................          } 
....................       } 
....................    } 
....................  
....................    if (base == 10 && sign == 1) 
....................       result = -result; 
....................  
....................    return(result); 
.................... } 
.................... #endif 
....................  
.................... char * itoa(signed int32 num, unsigned int base, char * s) 
.................... { 
....................      unsigned int32 temp=1; 
....................      unsigned int8 i,sign=0,cnt=0; 
....................      char c; 
....................  
....................      if(num<0) { 
....................          sign=1;        // Check for negative number 
....................          num*=-1; 
....................      } 
....................  
....................      while(temp>0) { 
....................          temp=(num/base); 
....................          s[cnt]=(num%base)+'0';    // Conversion 
....................  
....................          if(s[cnt]>0x39) 
....................             s[cnt]+=0x7; 
....................  
....................          cnt++; 
....................          num=temp; 
....................      } 
....................  
....................      if(sign==1) { 
....................          s[cnt]=0x2D;      // Negative sign 
....................          cnt++; 
....................      } 
....................  
....................      for(i = 0;i<(int8)(cnt/2);i++) { 
....................  
....................          c=s[i]; 
....................          s[i]=s[cnt-i-1];        // Reverse the number 
....................          s[cnt-i-1]=c; 
....................      } 
....................      s[cnt]='\0';     // End the string 
....................      return s; 
.................... } 
....................  
.................... #if defined(__PCD__) 
....................  
.................... char * itoa(signed int48 num, unsigned int base, char * s) 
.................... { 
....................      unsigned int48 temp=1; 
....................      unsigned int8 i,sign=0,cnt=0; 
....................      char c; 
....................  
....................      if(num<0) { 
....................          sign=1;        // Check for negative number 
....................          num*=-1; 
....................      } 
....................  
....................      while(temp>0) { 
....................          temp=(num/base); 
....................          s[cnt]=(num%base)+'0';    // Conversion 
....................  
....................          if(s[cnt]>0x39) 
....................             s[cnt]+=0x7; 
....................  
....................          cnt++; 
....................          num=temp; 
....................      } 
....................  
....................      if(sign==1) { 
....................          s[cnt]=0x2D;      // Negative sign 
....................          cnt++; 
....................      } 
....................  
....................      for(i = 0;i<(int8)(cnt/2);i++) { 
....................  
....................          c=s[i]; 
....................          s[i]=s[cnt-i-1];        // Reverse the number 
....................          s[cnt-i-1]=c; 
....................      } 
....................      s[cnt]='\0';     // End the string 
....................      return s; 
.................... } 
....................  
.................... char * itoa(signed int64 num, unsigned int base, char * s) 
.................... { 
....................      unsigned int64 temp=1; 
....................      unsigned int8 i,sign=0,cnt=0; 
....................      char c; 
....................       
....................      if(num<0) { 
....................          sign=1;        // Check for negative number 
....................          num*=-1;         
....................      } 
....................  
....................      while(temp>0) { 
....................          temp=(num/base); 
....................          s[cnt]=(num%base)+'0';    // Conversion 
....................  
....................          if(s[cnt]>0x39) 
....................             s[cnt]+=0x7; 
....................              
....................          cnt++; 
....................          num=temp; 
....................      } 
....................  
....................      if(sign==1) { 
....................          s[cnt]=0x2D;      // Negative sign 
....................          cnt++; 
....................      } 
....................  
....................      for(i = 0;i<(int8)(cnt/2);i++) { 
....................  
....................          c=s[i]; 
....................          s[i]=s[cnt-i-1];        // Reverse the number 
....................          s[cnt-i-1]=c; 
....................      } 
....................      s[cnt]='\0';     // End the string 
....................      return s; 
.................... } 
....................  
.................... #endif 
....................  
.................... float strtof(char *s, char *endptr) 
.................... { 
....................    float pow10 = 1.0; 
....................    float result = 0.0; 
....................    int1 skip = 1, sign = 0, point = 0; 
....................    char c; 
....................    unsigned int8 ptr = 0; 
....................  
....................    if (!s) 
....................       return 0; 
....................  
....................    for(c=s[ptr++]; c!=0; c=s[ptr++]) 
....................    { 
....................       if (skip && !isspace(c)) 
....................       { 
....................          skip = 0; 
....................          if (c == '+') 
....................          { 
....................             sign = 0; 
....................             continue; 
....................          }             
....................          else if (c == '-') 
....................          { 
....................             sign = 1; 
....................             continue; 
....................          } 
....................       } 
....................       if (!skip && (c == '.') && !point) 
....................          point = 1; 
....................       else if (!skip && isdigit(c)) 
....................       { 
....................          c -= '0'; 
....................          if (point) 
....................          { 
....................             pow10 = pow10 * 10.0; 
....................             result += (float)c / pow10;    
....................          } 
....................          else 
....................          { 
....................             result = 10.0 * result + (float)c; 
....................          } 
....................       } 
....................       else if (!skip) 
....................          break; 
....................    } 
....................  
....................    if (sign) 
....................       result = -1*result; 
....................        
....................    if(endptr) 
....................    { 
....................       if (ptr) { 
....................          ptr--; 
....................        #IF LONG_POINTERS  
....................          *((int16 *)endptr)= s+ptr;  
....................        #ELSE 
....................          *((char *)endptr)=s+ptr; 
....................        #ENDIF 
....................       } 
....................       else 
....................       { 
....................       #IF LONG_POINTERS 
....................       *((int16 *)endptr)= s;  
....................       #ELSE 
....................       *((char *)endptr)=s; 
....................       #ENDIF 
....................       } 
....................    } 
....................  
....................    return(result); 
.................... } 
....................  
.................... #if defined(__PCD__) 
.................... float48 strtof48(char *s, char *endptr) 
.................... { 
....................    float48 pow10 = 1.0; 
....................    float48 result = 0.0; 
....................    int1 skip = 1, sign = 0, point = 0; 
....................    char c; 
....................    unsigned int8 ptr = 0; 
....................  
....................    if (!s) 
....................       return 0; 
....................  
....................    for(c=s[ptr++]; c!=0; c=s[ptr++]) 
....................    { 
....................       if (skip && !isspace(c)) 
....................       { 
....................          skip = 0; 
....................          if (c == '+') 
....................          { 
....................             sign = 0; 
....................             continue; 
....................          }             
....................          else if (c == '-') 
....................          { 
....................             sign = 1; 
....................             continue; 
....................          } 
....................       } 
....................       if (!skip && (c == '.') && !point) 
....................          point = 1; 
....................       else if (!skip && isdigit(c)) 
....................       { 
....................          c -= '0'; 
....................          if (point) 
....................          { 
....................             pow10 = pow10 * 10.0; 
....................             result += (float48)c / pow10;    
....................          } 
....................          else 
....................          { 
....................             result = 10.0 * result + (float48)c; 
....................          } 
....................       } 
....................       else if (!skip) 
....................          break; 
....................    } 
....................  
....................    if (sign) 
....................       result = -1*result; 
....................        
....................    if(endptr) 
....................    { 
....................       if (ptr) { 
....................          ptr--; 
....................        #IF LONG_POINTERS  
....................          *((int16 *)endptr)= s+ptr;  
....................        #ELSE 
....................          *((char *)endptr)=s+ptr; 
....................        #ENDIF 
....................       } 
....................       else 
....................       { 
....................       #IF LONG_POINTERS 
....................       *((int16 *)endptr)= s;  
....................       #ELSE 
....................       *((char *)endptr)=s; 
....................       #ENDIF 
....................       } 
....................    } 
....................  
....................    return(result); 
.................... } 
....................  
.................... float64 strtod(char *s, char *endptr) 
.................... { 
....................    float64 pow10 = 1.0; 
....................    float64 result = 0.0; 
....................    int1 skip = 1, sign = 0, point = 0; 
....................    char c; 
....................    unsigned int8 ptr = 0; 
....................  
....................    if (!s) 
....................       return 0; 
....................  
....................    for(c=s[ptr++]; c!=0; c=s[ptr++]) 
....................    { 
....................       if (skip && !isspace(c)) 
....................       { 
....................          skip = 0; 
....................          if (c == '+') 
....................          { 
....................             sign = 0; 
....................             continue; 
....................          }             
....................          else if (c == '-') 
....................          { 
....................             sign = 1; 
....................             continue; 
....................          } 
....................       } 
....................       if (!skip && (c == '.') && !point) 
....................          point = 1; 
....................       else if (!skip && isdigit(c)) 
....................       { 
....................          c -= '0'; 
....................          if (point) 
....................          { 
....................             pow10 = pow10 * 10.0; 
....................             result += (float64)c / pow10;    
....................          } 
....................          else 
....................          { 
....................             result = 10.0 * result + (float64)c; 
....................          } 
....................       } 
....................       else if (!skip) 
....................          break; 
....................    } 
....................  
....................    if (sign) 
....................       result = -1*result; 
....................        
....................    if(endptr) 
....................    { 
....................       if (ptr) { 
....................          ptr--; 
....................        #IF LONG_POINTERS  
....................          *((int16 *)endptr)= s+ptr;  
....................        #ELSE 
....................          *((char *)endptr)=s+ptr; 
....................        #ENDIF 
....................       } 
....................       else 
....................       { 
....................       #IF LONG_POINTERS 
....................       *((int16 *)endptr)= s;  
....................       #ELSE 
....................       *((char *)endptr)=s; 
....................       #ENDIF 
....................       } 
....................    } 
....................  
....................    return(result); 
.................... } 
.................... #endif 
....................  
.................... unsigned long strtoul(char *s, char *endptr, signed int base) 
.................... { 
....................    char *sc,*s1,*sd; 
....................    unsigned long x=0; 
....................    char sign; 
....................    char digits[]="0123456789abcdefghijklmnopqstuvwxyz"; 
....................    for(sc=s;isspace(*sc);++sc); 
....................    sign=*sc=='-'||*sc=='+'?*sc++:'+'; 
....................    if(sign=='-' || base <0 || base ==1|| base >36) // invalid base 
....................    goto StrtoulGO; 
....................  
....................    else if (base) 
....................    { 
....................       if(base==16 && *sc =='0'&&(sc[1]=='x' || sc[1]=='X')) 
....................          sc+=2; 
....................       if(base==8 && *sc =='0') 
....................          sc+=1; 
....................       if(base==2 && *sc =='0'&&sc[1]=='b') 
....................          sc+=2; 
....................  
....................    } 
....................    else if(*sc!='0') // base is 0, find base 
....................       base=10; 
....................    else if (sc[1]=='x' || sc[1]=='X') 
....................       base =16,sc+=2; 
....................    else if(sc[1]=='b') 
....................       base=2,sc+=2; 
....................    else 
....................       base=8; 
....................    for (s1=sc;*sc=='0';++sc);// skip leading zeroes 
....................    sd=memchr(digits,tolower(*sc),base); 
....................    for(; sd!=0; ) 
....................    { 
....................       x=x*base+(int16)(sd-digits); 
....................       ++sc; 
....................       sd=memchr(digits,tolower(*sc),base); 
....................    } 
....................    if(s1==sc) 
....................    { 
....................    StrtoulGO: 
....................       if (endptr) 
....................       { 
....................          #IF LONG_POINTERS 
....................          *((int16 *)endptr)= s;  
....................          #ELSE 
....................          *((char *)endptr)=s; 
....................          #ENDIF 
....................          } 
....................    return 0; 
....................    } 
....................    if (endptr) 
....................    { 
....................          #IF LONG_POINTERS 
....................          *((int16 *)endptr)= sc;  
....................          #ELSE 
....................          *((char *)endptr)=sc;  
....................          #ENDIF 
....................    } 
....................    return x; 
.................... } 
....................  
....................  
.................... signed long strtol(char *s,char *endptr, signed int base) 
.................... { 
....................    char *sc,*s1,*sd; 
....................    signed long x=0; 
....................    char sign; 
....................    char digits[]="0123456789abcdefghijklmnopqstuvwxyz"; 
....................    for(sc=s;isspace(*sc);++sc); 
....................    sign=*sc=='-'||*sc=='+'?*sc++:'+'; 
....................    if (base <0 || base ==1|| base >36) // invalid base 
....................    goto StrtolGO; 
....................    else if (base) 
....................    { 
....................       if(base==16 && *sc =='0'&&(sc[1]=='x' || sc[1]=='X')) 
....................          sc+=2; 
....................       if(base==8 && *sc =='0') 
....................          sc+=1; 
....................       if(base==2 && *sc =='0'&&sc[1]=='b') 
....................          sc+=2; 
....................  
....................    } 
....................    else if(*sc!='0') // base is 0, find base 
....................       base=10; 
....................    else if (sc[1]=='x' || sc[1]=='X') 
....................       base =16,sc+=2; 
....................    else if(sc[1]=='b') 
....................       base=2,sc+=2; 
....................    else 
....................       base=8; 
....................    for (s1=sc;*sc=='0';++sc);// skip leading zeroes 
....................  
....................    sd=memchr(digits,tolower(*sc),base); 
....................    for(;sd!=0;) 
....................    { 
....................       x=x*base+(int16)(sd-digits); 
....................       ++sc; 
....................       sd=memchr(digits,tolower(*sc),base); 
....................    } 
....................    if(s1==sc) 
....................    { 
....................    StrtolGO: 
....................       if (endptr) 
....................       { 
....................          #IF LONG_POINTERS 
....................          *((int16 *)endptr)= s;  
....................          #ELSE 
....................          *((char *)endptr)=s; 
....................          #ENDIF 
....................       } 
....................    return 0; 
....................    } 
....................    if(sign=='-') 
....................       x  =-x; 
....................    if (endptr) 
....................    { 
....................         #IF LONG_POINTERS 
....................          *((int16 *)endptr)= sc;  
....................         #ELSE 
....................         *((char *)endptr)=sc; 
....................         #ENDIF 
....................    } 
....................    return x; 
.................... } 
....................  
.................... signed int8 system(char *string) 
.................... { 
....................    return 0; 
.................... } 
....................  
.................... int8 mblen(char *s,size_t n) 
.................... { 
....................    return strlen(s); 
.................... } 
....................  
.................... int8 mbtowc(wchar_t *pwc,char *s,size_t n) 
.................... { 
....................    *pwc=*s; 
....................    return 1; 
.................... } 
....................  
.................... int8 wctomb(char *s,wchar_t wchar) 
.................... { 
....................    *s=wchar; 
....................    return 1; 
.................... } 
....................  
.................... size_t mbstowcs(wchar_t *pwcs,char *s,size_t n) 
.................... { 
....................    strncpy(pwcs,s,n); 
....................    return strlen(pwcs); 
.................... } 
....................  
.................... size_t wcstombs(char *s,wchar_t *pwcs,size_t n) 
.................... { 
....................    strncpy(s,pwcs,n); 
....................    return strlen(s); 
.................... } 
....................  
.................... //--------------------------------------------------------------------------- 
.................... // The random number implementation 
.................... //--------------------------------------------------------------------------- 
....................  
.................... unsigned int32 _Randseed; 
....................  
.................... unsigned int16 rand(void) 
.................... { 
....................    _Randseed = _Randseed * 1103515245 + 12345; 
....................    return ((unsigned int16)(_Randseed >> 16) % RAND_MAX); 
.................... } 
....................  
.................... void srand(unsigned int32 seed) 
.................... { 
....................    _Randseed = seed; 
.................... } 
....................  
.................... //--------------------------------------------------------------------------- 
.................... // Searching and sorting utilities implementation 
.................... //--------------------------------------------------------------------------- 
....................  
.................... #if !defined(__PCD__) 
.................... typedef signed int8 (*_Cmpfun)(char * p1,char * p2);  
.................... #else  
.................... typedef signed int16 (*_Cmpfun)(char * p1,char * p2);  
.................... #endif 
....................  
....................  
....................  
.................... void qsort(char * qdata, unsigned int qitems, unsigned int qsize, _Cmpfun cmp) { 
....................    unsigned int m,j,i,l; 
....................    int1 done; 
....................    unsigned int8 t[16]; 
....................  
....................    m = qitems/2; 
....................    while( m > 0 ) { 
....................      for(j=0; j<(qitems-m); ++j) { 
....................         i = j; 
....................         do 
....................         { 
....................            done=1; 
....................            l = i+m; 
....................            if( (*cmp)(qdata+i*qsize, qdata+l*qsize) > 0 ) { 
....................               memcpy(t, qdata+i*qsize, qsize); 
....................               memcpy(qdata+i*qsize, qdata+l*qsize, qsize); 
....................               memcpy(qdata+l*qsize, t, qsize); 
....................               if(m <= i) 
....................                 i -= m; 
....................                 done = 0; 
....................            } 
....................         } while(!done); 
....................      } 
....................      m = m/2; 
....................    } 
.................... } 
....................  
....................  
.................... char *bsearch(char *key, char *base, size_t num, size_t width,_Cmpfun cmp) 
.................... { 
....................    char *p, *q; 
....................    size_t n; 
....................    size_t pivot; 
....................    signed int val; 
....................  
....................    p = base; 
....................    n = num; 
....................  
....................    while (n > 0) 
....................    { 
....................       pivot = n >> 1; 
....................       q = p + width * pivot; 
....................  
....................       val = (*cmp)(key, q); 
....................  
....................       if (val < 0) 
....................          n = pivot; 
....................       else if (val == 0) 
....................          return ((char *)q); 
....................       else { 
....................          p = q + width; 
....................          n -= pivot + 1; 
....................       } 
....................    } 
....................  
....................    return NULL;      // There's no match 
.................... } 
....................  
....................  
.................... #endif 
....................  
.................... #include <input.c> 
.................... /////////////////////////////////////////////////////////////////////////// 
.................... ////                                                                   //// 
.................... ////                             input.c                               //// 
.................... ////                                                                   //// 
.................... //// Routines for reading user input over an RS232 stream.  User input //// 
.................... //// is in ASCII form and converted to requested binary or float       //// 
.................... //// format.                                                           //// 
.................... ////                                                                   //// 
.................... //// If STREAM_SERIAL_INPUT is defined, these routines will read from  //// 
.................... //// that serial stream.  If not, uses the last #use rs232().          //// 
.................... ////                                                                   //// 
.................... //// Some of these routines are not available unless you #include      //// 
.................... //// string.h and stdlib.h                                             //// 
.................... ////                                                                   //// 
.................... ////  int8 gethex() - read 2 char hex value from serial                //// 
.................... ////                                                                   //// 
.................... ////  get_string(s, max) - read max chars from serial and save to s    //// 
.................... ////                                                                   //// 
.................... ////  get_stringEdit(s, max) - similar to get_string(), but first it   //// 
.................... ////     displays current string in s, allowing you to edit it.        //// 
.................... ////                                                                   //// 
.................... ////  int8 = get_Int8() -                                              //// 
.................... ////  int16 = get_Int16() -                                            //// 
.................... ////  int32 = get_Int32() -                                            //// 
.................... ////  float = get_float() -                                            //// 
.................... ////     Read value from serial.                                       //// 
.................... ////                                                                   //// 
.................... ////  int8 = get_Int8Edit(old) -                                       //// 
.................... ////  int16 = get_Int16Edit(old) -                                     //// 
.................... ////  int32 = get_Int32Edit(old) -                                     //// 
.................... ////  float = get_floatEdit(old) -                                     //// 
.................... ////     Similar to get_Int*() routines documented above, but first    //// 
.................... ////     it displays old value allowing you to edit it.                //// 
.................... ////                                                                   //// 
.................... ////  int = get_int() -                                                //// 
.................... ////  long = get_long() -                                              //// 
.................... ////     Simlar to get_Int*() documented above, but return 'int' and   //// 
.................... ////     'long' datatypes.  The size of these datatypes depends on     //// 
.................... ////     the PIC architecture and compiler configuration.              //// 
.................... ////                                                                   //// 
.................... ////  int = get_intEdit(old) -                                         //// 
.................... ////  long = get_longEdit(old) -                                       //// 
.................... ////     Similar to get_int() and get_long() documented above,         //// 
.................... ////     but first it displays old value allowing you to edit it.      //// 
.................... ////                                                                   //// 
.................... /////////////////////////////////////////////////////////////////////////// 
.................... ////        (C) Copyright 1996,2012 Custom Computer Services           //// 
.................... //// This source code may only be used by licensed users of the CCS C  //// 
.................... //// compiler.  This source code may only be distributed to other      //// 
.................... //// licensed users of the CCS C compiler.  No other use, reproduction //// 
.................... //// or distribution is permitted without written permission.          //// 
.................... //// Derivative programs created using this software in object code    //// 
.................... //// form are not restricted in any way.                               //// 
.................... /////////////////////////////////////////////////////////////////////////// 
....................  
.................... #ifndef __INPUT_C__ 
.................... #define __INPUT_C__ 
....................  
.................... #include <ctype.h> 
.................... //////////////////////////////////////////////////////////////////////////// 
.................... ////        (C) Copyright 1996,2003 Custom Computer Services            //// 
.................... //// This source code may only be used by licensed users of the CCS C   //// 
.................... //// compiler.  This source code may only be distributed to other       //// 
.................... //// licensed users of the CCS C compiler.  No other use, reproduction  //// 
.................... //// or distribution is permitted without written permission.           //// 
.................... //// Derivative programs created using this software in object code     //// 
.................... //// form are not restricted in any way.                                //// 
.................... //////////////////////////////////////////////////////////////////////////// 
....................  
.................... #ifndef _CTYPE 
.................... #define _CTYPE 
....................  
.................... #define islower(x)  isamong(x,"abcdefghijklmnopqrstuvwxyz") 
.................... #define isupper(x)  isamong(x,"ABCDEFGHIJKLMNOPQRSTUVWXYZ") 
.................... #define isalnum(x)  isamong(x,"0123456789ABCDEFGHIJKLMNOPQRSTUVWXYZabcdefghijklmnopqrstuvwxyz") 
.................... #define isalpha(x)  isamong(x,"ABCDEFGHIJKLMNOPQRSTUVWXYZabcdefghijklmnopqrstuvwxyz") 
.................... #define isdigit(x)  isamong(x,"0123456789") 
.................... #define isspace(x)  ((x)==' ') 
.................... #define isxdigit(x) isamong(x,"0123456789ABCDEFabcdef") 
.................... #define iscntrl(x)  ((x)<' ') 
.................... #define isprint(x)  ((x)>=' ') 
.................... #define isgraph(x)  ((x)>' ') 
.................... #define ispunct(x)  (((x)>' ')&&!isalnum(x)) 
....................  
.................... #endif 
....................  
....................  
....................  
.................... #if defined(STREAM_SERIAL_INPUT) 
....................    #define InputKbhit()    kbhit(STREAM_SERIAL_INPUT) 
....................    #define InputPutc(c)    fputc(c, STREAM_SERIAL_INPUT) 
....................    #define InputGetc()     fgetc(STREAM_SERIAL_INPUT) 
.................... #else 
....................    #define InputKbhit()    kbhit() 
....................    #define InputPutc(c)    putc(c) 
....................    #define InputGetc()     getc() 
.................... #endif 
....................  
.................... unsigned int8 gethex1() { 
....................    char digit; 
....................  
....................    digit = InputGetc(); 
....................  
....................    InputPutc(digit); 
....................  
....................    if(digit<='9') 
....................      return(digit-'0'); 
....................    else 
....................      return((toupper(digit)-'A')+10); 
.................... } 
....................  
.................... unsigned int8 gethex() { 
....................    unsigned int8 lo,hi; 
....................  
....................    hi = gethex1(); 
....................    lo = gethex1(); 
....................    if(lo==0xdd) 
....................      return(hi); 
....................    else 
....................      return( hi*16+lo ); 
.................... } 
....................  
.................... void get_string(char* s, unsigned int8 max) { 
....................    unsigned int8 len; 
....................    char c; 
....................  
....................    max-=2; 
....................    len=0; 
....................    do { 
....................      c=InputGetc(); 
....................      if(c==8) {  // Backspace 
....................         if(len>0) { 
....................           len--; 
....................           InputPutc(c); 
....................           InputPutc(' '); 
....................           InputPutc(c); 
....................         } 
....................      } else if ((c>=' ')&&(c<='~')) 
....................        if(len<=max) { 
....................          s[len++]=c; 
....................          InputPutc(c); 
....................        } 
....................    } while(c!=13); 
....................    s[len]=0; 
.................... } 
....................  
.................... #ifdef _STRING 
.................... void get_stringEdit(char* s, unsigned int8 max) { 
....................    unsigned int8 len; 
....................    char c; 
....................  
....................    len = strlen(s); 
....................  
....................    if (len) 
....................    { 
....................      #if defined(STREAM_SERIAL_INPUT) 
....................       fprintf(STREAM_SERIAL_INPUT, "%s", s); 
....................      #else 
....................       printf("%s", s); 
....................      #endif 
....................    } 
....................  
....................    max-=2; 
....................  
....................    do { 
....................      c=InputGetc(); 
....................      if(c==8) {  // Backspace 
....................         if(len>0) { 
....................           len--; 
....................           InputPutc(c); 
....................           InputPutc(' '); 
....................           InputPutc(c); 
....................         } 
....................      } else if ((c>=' ')&&(c<='~')) 
....................        if(len<=max) { 
....................          s[len++]=c; 
....................          InputPutc(c); 
....................        } 
....................    } while(c!=13); 
....................    s[len]=0; 
.................... } 
.................... #endif 
....................  
.................... // stdlib.h is required for the ato_ conversions 
.................... // in the following functions 
.................... #ifdef _STDLIB 
.................... signed int8 get_Int8(void) 
.................... { 
....................   char s[5]; 
....................   signed int8 i; 
....................  
....................   get_string(s, sizeof(s)); 
....................  
....................   i=atoi(s); 
....................   return(i); 
.................... } 
....................  
.................... #ifdef _STRING 
.................... signed int8 get_Int8Edit(signed int8 old) 
.................... { 
....................   char s[5]; 
....................   signed int8 i; 
....................  
....................   sprintf(s, "%d", old); 
....................   get_stringEdit(s, sizeof(s)); 
....................  
....................   i=atoi(s); 
....................   return(i); 
.................... } 
.................... #endif 
....................  
.................... signed int16 get_Int16(void) 
.................... { 
....................   char s[7]; 
....................   signed int16 l; 
....................  
....................   get_string(s, sizeof(s)); 
....................   l=atol(s); 
....................   return(l); 
.................... } 
....................  
.................... #ifdef _STRING 
.................... signed int16 get_Int16Edit(signed int16 old) 
.................... { 
....................   char s[7]; 
....................   signed int16 l; 
....................  
....................   sprintf(s, "%ld", old); 
....................  
....................   get_stringEdit(s, sizeof(s)); 
....................   l=atol(s); 
....................   return(l); 
.................... } 
.................... #endif 
....................  
.................... signed int32 get_Int32(void) 
.................... { 
....................   char s[12]; 
....................   signed int32 l; 
....................  
....................   get_string(s, sizeof(s)); 
....................   l=atoi32(s); 
....................   return(l); 
.................... } 
....................  
.................... #ifdef _STRING 
.................... signed int32 get_Int32Edit(signed int32 old) 
.................... { 
....................   char s[12]; 
....................   signed int32 l; 
....................  
....................   sprintf(s, "%ld", old); 
....................  
....................   get_stringEdit(s, sizeof(s)); 
....................   l=atoi32(s); 
....................   return(l); 
.................... } 
.................... #endif 
....................  
.................... float get_float() { 
....................   char s[20]; 
....................   float f; 
....................  
....................   get_string(s, 20); 
....................   f = atof(s); 
....................   return(f); 
.................... } 
....................  
.................... #ifdef _STRING 
.................... float get_floatEdit(float old) { 
....................   char s[20]; 
....................   float f; 
....................  
....................   sprintf(s, "%f", old); 
....................  
....................   get_string(s, 20); 
....................   f = atof(s); 
....................   return(f); 
.................... } 
.................... #endif 
....................  
.................... #if defined(__PCD__) 
....................    #define get_int()       get_Int16() 
....................    #define get_intEdit()   get_Int16Edit() 
....................    #define get_long()      get_Int32() 
....................    #define get_longEdit()  get_Int32Edit() 
.................... #else 
....................    #define get_int()       get_Int8() 
....................    #define get_intEdit()   get_Int8Edit() 
....................    #define get_long()      get_Int16() 
....................    #define get_longEdit()  get_Int16Edit() 
.................... #endif 
....................  
.................... #endif   //_STDLIB 
....................  
.................... #endif   //__INPUT_C__ 
....................  
....................  
.................... #byte port_a= 5  
.................... #byte port_b= 6  
.................... #byte port_c= 7  
.................... #byte port_d= 8 
....................  
....................  
....................  
....................  
....................  
....................  
.................... int tiempo = 1000; 
.................... int contador = 0; 
....................  
.................... /* ------------------ SECUENCIA 1 ------------*/ 
....................  
.................... void secuencia_1() 
.................... { 
....................    output_b(0b01010101); 
*
00FF:  BSF    03.5
0100:  CLRF   06
0101:  MOVLW  55
0102:  BCF    03.5
0103:  MOVWF  06
....................    delay_ms(tiempo); 
0104:  MOVF   28,W
0105:  MOVWF  2A
0106:  CALL   0EA
....................    output_b(0b10101010); 
0107:  BSF    03.5
0108:  CLRF   06
0109:  MOVLW  AA
010A:  BCF    03.5
010B:  MOVWF  06
....................    delay_ms(tiempo); 
010C:  MOVF   28,W
010D:  MOVWF  2A
010E:  CALL   0EA
010F:  BCF    0A.3
0110:  BCF    0A.4
0111:  GOTO   21E (RETURN)
.................... } 
....................  
.................... /* ------------------ SECUENCIA 2 ------------*/ 
.................... void secuencia_2() 
.................... { 
....................    output_b(0b00000000); 
0112:  BSF    03.5
0113:  CLRF   06
0114:  BCF    03.5
0115:  CLRF   06
....................    delay_ms(tiempo); 
0116:  MOVF   28,W
0117:  MOVWF  2A
0118:  CALL   0EA
....................    output_b(0b11111111); 
0119:  BSF    03.5
011A:  CLRF   06
011B:  MOVLW  FF
011C:  BCF    03.5
011D:  MOVWF  06
....................    delay_ms(tiempo); 
011E:  MOVF   28,W
011F:  MOVWF  2A
0120:  CALL   0EA
0121:  BCF    0A.3
0122:  BCF    0A.4
0123:  GOTO   22B (RETURN)
.................... } 
.................... /* ------------------ SECUENCIA 3 ------------*/ 
.................... void secuencia_3() 
.................... {  
....................    output_b(0b10000001); 
0124:  BSF    03.5
0125:  CLRF   06
0126:  MOVLW  81
0127:  BCF    03.5
0128:  MOVWF  06
....................    delay_ms(tiempo); 
0129:  MOVF   28,W
012A:  MOVWF  2A
012B:  CALL   0EA
....................    output_b(0b11000011); 
012C:  BSF    03.5
012D:  CLRF   06
012E:  MOVLW  C3
012F:  BCF    03.5
0130:  MOVWF  06
....................    delay_ms(tiempo); 
0131:  MOVF   28,W
0132:  MOVWF  2A
0133:  CALL   0EA
....................    output_b(0b11100111); 
0134:  BSF    03.5
0135:  CLRF   06
0136:  MOVLW  E7
0137:  BCF    03.5
0138:  MOVWF  06
....................    delay_ms(tiempo); 
0139:  MOVF   28,W
013A:  MOVWF  2A
013B:  CALL   0EA
....................    output_b(0b11111111); 
013C:  BSF    03.5
013D:  CLRF   06
013E:  MOVLW  FF
013F:  BCF    03.5
0140:  MOVWF  06
....................    delay_ms(tiempo); 
0141:  MOVF   28,W
0142:  MOVWF  2A
0143:  CALL   0EA
....................    output_b(0b11100111); 
0144:  BSF    03.5
0145:  CLRF   06
0146:  MOVLW  E7
0147:  BCF    03.5
0148:  MOVWF  06
....................    delay_ms(tiempo); 
0149:  MOVF   28,W
014A:  MOVWF  2A
014B:  CALL   0EA
....................    output_b(0b11000011); 
014C:  BSF    03.5
014D:  CLRF   06
014E:  MOVLW  C3
014F:  BCF    03.5
0150:  MOVWF  06
....................    delay_ms(tiempo); 
0151:  MOVF   28,W
0152:  MOVWF  2A
0153:  CALL   0EA
....................    output_b(0b10000001); 
0154:  BSF    03.5
0155:  CLRF   06
0156:  MOVLW  81
0157:  BCF    03.5
0158:  MOVWF  06
....................    delay_ms(tiempo); 
0159:  MOVF   28,W
015A:  MOVWF  2A
015B:  CALL   0EA
015C:  BCF    0A.3
015D:  BCF    0A.4
015E:  GOTO   238 (RETURN)
.................... } 
....................  
.................... /* ------------- SECUENCIA 4 ----------------*/ 
.................... void secuencia_4() 
.................... { 
....................    output_b(0b10000000); 
015F:  BSF    03.5
0160:  CLRF   06
0161:  MOVLW  80
0162:  BCF    03.5
0163:  MOVWF  06
....................    delay_ms(tiempo); 
0164:  MOVF   28,W
0165:  MOVWF  2A
0166:  CALL   0EA
....................    output_b(0b01000000); 
0167:  BSF    03.5
0168:  CLRF   06
0169:  MOVLW  40
016A:  BCF    03.5
016B:  MOVWF  06
....................    delay_ms(tiempo); 
016C:  MOVF   28,W
016D:  MOVWF  2A
016E:  CALL   0EA
....................    output_b(0b00100000); 
016F:  BSF    03.5
0170:  CLRF   06
0171:  MOVLW  20
0172:  BCF    03.5
0173:  MOVWF  06
....................    delay_ms(tiempo); 
0174:  MOVF   28,W
0175:  MOVWF  2A
0176:  CALL   0EA
....................    output_b(0b00010000); 
0177:  BSF    03.5
0178:  CLRF   06
0179:  MOVLW  10
017A:  BCF    03.5
017B:  MOVWF  06
....................    delay_ms(tiempo); 
017C:  MOVF   28,W
017D:  MOVWF  2A
017E:  CALL   0EA
....................    output_b(0b00001000); 
017F:  BSF    03.5
0180:  CLRF   06
0181:  MOVLW  08
0182:  BCF    03.5
0183:  MOVWF  06
....................    delay_ms(tiempo); 
0184:  MOVF   28,W
0185:  MOVWF  2A
0186:  CALL   0EA
....................    output_b(0b00000100); 
0187:  BSF    03.5
0188:  CLRF   06
0189:  MOVLW  04
018A:  BCF    03.5
018B:  MOVWF  06
....................    delay_ms(tiempo); 
018C:  MOVF   28,W
018D:  MOVWF  2A
018E:  CALL   0EA
....................    output_b(0b00000010); 
018F:  BSF    03.5
0190:  CLRF   06
0191:  MOVLW  02
0192:  BCF    03.5
0193:  MOVWF  06
....................    delay_ms(tiempo); 
0194:  MOVF   28,W
0195:  MOVWF  2A
0196:  CALL   0EA
....................    output_b(0b00000001); 
0197:  BSF    03.5
0198:  CLRF   06
0199:  MOVLW  01
019A:  BCF    03.5
019B:  MOVWF  06
....................    delay_ms(tiempo); 
019C:  MOVF   28,W
019D:  MOVWF  2A
019E:  CALL   0EA
....................    output_b(0b00000010); 
019F:  BSF    03.5
01A0:  CLRF   06
01A1:  MOVLW  02
01A2:  BCF    03.5
01A3:  MOVWF  06
....................    delay_ms(tiempo); 
01A4:  MOVF   28,W
01A5:  MOVWF  2A
01A6:  CALL   0EA
....................    output_b(0b00000100); 
01A7:  BSF    03.5
01A8:  CLRF   06
01A9:  MOVLW  04
01AA:  BCF    03.5
01AB:  MOVWF  06
....................    delay_ms(tiempo); 
01AC:  MOVF   28,W
01AD:  MOVWF  2A
01AE:  CALL   0EA
....................    output_b(0b00001000); 
01AF:  BSF    03.5
01B0:  CLRF   06
01B1:  MOVLW  08
01B2:  BCF    03.5
01B3:  MOVWF  06
....................    delay_ms(tiempo); 
01B4:  MOVF   28,W
01B5:  MOVWF  2A
01B6:  CALL   0EA
....................    output_b(0b00010000); 
01B7:  BSF    03.5
01B8:  CLRF   06
01B9:  MOVLW  10
01BA:  BCF    03.5
01BB:  MOVWF  06
....................    delay_ms(tiempo); 
01BC:  MOVF   28,W
01BD:  MOVWF  2A
01BE:  CALL   0EA
....................    output_b(0b00100000); 
01BF:  BSF    03.5
01C0:  CLRF   06
01C1:  MOVLW  20
01C2:  BCF    03.5
01C3:  MOVWF  06
....................    delay_ms(tiempo); 
01C4:  MOVF   28,W
01C5:  MOVWF  2A
01C6:  CALL   0EA
....................    output_b(0b01000000); 
01C7:  BSF    03.5
01C8:  CLRF   06
01C9:  MOVLW  40
01CA:  BCF    03.5
01CB:  MOVWF  06
....................    delay_ms(tiempo); 
01CC:  MOVF   28,W
01CD:  MOVWF  2A
01CE:  CALL   0EA
....................    output_b(0b10000000); 
01CF:  BSF    03.5
01D0:  CLRF   06
01D1:  MOVLW  80
01D2:  BCF    03.5
01D3:  MOVWF  06
....................    delay_ms(tiempo); 
01D4:  MOVF   28,W
01D5:  MOVWF  2A
01D6:  CALL   0EA
01D7:  BCF    0A.3
01D8:  BCF    0A.4
01D9:  GOTO   245 (RETURN)
.................... } 
....................  
.................... void main() 
01DA:  MOVF   03,W
01DB:  ANDLW  1F
01DC:  MOVWF  03
01DD:  MOVLW  19
01DE:  BSF    03.5
01DF:  MOVWF  19
01E0:  MOVLW  A6
01E1:  MOVWF  18
01E2:  MOVLW  90
01E3:  BCF    03.5
01E4:  MOVWF  18
01E5:  CLRF   27
01E6:  CLRF   26
01E7:  MOVLW  E8
01E8:  MOVWF  28
01E9:  CLRF   29
01EA:  BSF    03.5
01EB:  BSF    1F.0
01EC:  BSF    1F.1
01ED:  BSF    1F.2
01EE:  BCF    1F.3
01EF:  MOVLW  07
01F0:  MOVWF  1C
01F1:  BCF    03.7
.................... { 
....................  
....................    bit_clear (port_b,0); 
*
01F5:  BCF    06.0
....................    bit_clear (port_b,0); 
01F6:  BCF    06.0
....................     
....................    set_tris_b(0x00); 
01F7:  MOVLW  00
01F8:  BSF    03.5
01F9:  MOVWF  06
....................    port_b=0x00; 
01FA:  BCF    03.5
01FB:  CLRF   06
....................    ///----- Pregunta por el pin 
....................    while(true){ 
....................       if(input(pin_a1)==0) 
01FC:  BSF    03.5
01FD:  BSF    05.1
01FE:  BCF    03.5
01FF:  BTFSC  05.1
0200:  GOTO   214
....................       { 
....................          while(input(pin_a1)==0); 
0201:  BSF    03.5
0202:  BSF    05.1
0203:  BCF    03.5
0204:  BTFSS  05.1
0205:  GOTO   201
....................          contador++; 
0206:  INCF   29,F
....................          printf(" %d ", contador); 
0207:  MOVLW  20
0208:  BTFSS  0C.4
0209:  GOTO   208
020A:  MOVWF  19
020B:  MOVF   29,W
020C:  MOVWF  2A
020D:  MOVLW  18
020E:  MOVWF  2B
020F:  GOTO   035
0210:  MOVLW  20
0211:  BTFSS  0C.4
0212:  GOTO   211
0213:  MOVWF  19
....................       } 
....................       if(contador == 1){ 
0214:  DECFSZ 29,W
0215:  GOTO   21F
....................          printf("Secuencia 1 "); 
0216:  MOVLW  04
0217:  BSF    03.6
0218:  MOVWF  0D
0219:  MOVLW  00
021A:  MOVWF  0F
021B:  BCF    03.6
021C:  CALL   092
....................          secuencia_1(); 
021D:  GOTO   0FF
....................       } 
021E:  GOTO   24C
....................       else if(contador == 2){ 
021F:  MOVF   29,W
0220:  SUBLW  02
0221:  BTFSS  03.2
0222:  GOTO   22C
....................          printf("Secuencia 2 "); 
0223:  MOVLW  0B
0224:  BSF    03.6
0225:  MOVWF  0D
0226:  MOVLW  00
0227:  MOVWF  0F
0228:  BCF    03.6
0229:  CALL   092
....................          secuencia_2(); 
022A:  GOTO   112
....................       } 
022B:  GOTO   24C
....................       else if(contador == 3){ 
022C:  MOVF   29,W
022D:  SUBLW  03
022E:  BTFSS  03.2
022F:  GOTO   239
....................          printf("Secuencia 3 "); 
0230:  MOVLW  12
0231:  BSF    03.6
0232:  MOVWF  0D
0233:  MOVLW  00
0234:  MOVWF  0F
0235:  BCF    03.6
0236:  CALL   092
....................          secuencia_3(); 
0237:  GOTO   124
....................       } 
0238:  GOTO   24C
....................       else if(contador == 4){ 
0239:  MOVF   29,W
023A:  SUBLW  04
023B:  BTFSS  03.2
023C:  GOTO   246
....................          printf("Secuencia 4 "); 
023D:  MOVLW  19
023E:  BSF    03.6
023F:  MOVWF  0D
0240:  MOVLW  00
0241:  MOVWF  0F
0242:  BCF    03.6
0243:  CALL   092
....................          secuencia_4(); 
0244:  GOTO   15F
....................       } 
0245:  GOTO   24C
....................       else if(contador == 5){ 
0246:  MOVF   29,W
0247:  SUBLW  05
0248:  BTFSS  03.2
0249:  GOTO   24C
....................          contador= 1; 
024A:  MOVLW  01
024B:  MOVWF  29
....................       }     
024C:  GOTO   1FC
....................    } 
.................... } 
....................  
024D:  SLEEP
....................  
....................  

Configuration Fuses:
   Word  1: 3F72   HS NOWDT PUT BROWNOUT NOLVP NOCPD NOWRT NODEBUG NOPROTECT
